target datalayout = "e-m:e-p270:32:32-p271:32:32-p272:64:64-i64:64-i128:128-f80:128-n8:16:32:64-S128"
target triple = "x86_64-pc-linux-gnu"

%struct.SDL_IOStreamInterface = type { i32, ptr, ptr, ptr, ptr, ptr, ptr }
%struct.SDL_IOStream = type { %struct.SDL_IOStreamInterface, ptr, i32, i32 }

@.str.2 = private unnamed_addr constant [26 x i8] c"Parameter '%s' is invalid\00", align 1
@.str.11 = private unnamed_addr constant [8 x i8] c"context\00", align 1
@.str.18 = private unnamed_addr constant [32 x i8] c"That operation is not supported\00", align 1

; Function Attrs: nounwind uwtable
define hidden i64 @SDL_SeekIO_REAL(ptr noundef %0, i64 noundef %1, i32 noundef %2) #0 {
  %4 = alloca i64, align 8
  %5 = alloca ptr, align 8
  %6 = alloca i64, align 8
  %7 = alloca i32, align 4
  store ptr %0, ptr %5, align 8
  store i64 %1, ptr %6, align 8
  store i32 %2, ptr %7, align 4
  %8 = load ptr, ptr %5, align 8
  %9 = icmp ne ptr %8, null
  br i1 %9, label %12, label %10

10:                                               ; preds = %3
  %11 = call zeroext i1 (ptr, ...) @SDL_SetError_REAL(ptr noundef @.str.2, ptr noundef @.str.11)
  store i64 -1, ptr %4, align 8
  br label %32

12:                                               ; preds = %3
  %13 = load ptr, ptr %5, align 8
  %14 = getelementptr inbounds nuw %struct.SDL_IOStream, ptr %13, i32 0, i32 0
  %15 = getelementptr inbounds nuw %struct.SDL_IOStreamInterface, ptr %14, i32 0, i32 2
  %16 = load ptr, ptr %15, align 8
  %17 = icmp ne ptr %16, null
  br i1 %17, label %20, label %18

18:                                               ; preds = %12
  %19 = call zeroext i1 (ptr, ...) @SDL_SetError_REAL(ptr noundef @.str.18)
  store i64 -1, ptr %4, align 8
  br label %32

20:                                               ; preds = %12
  br label %21

21:                                               ; preds = %20
  %22 = load ptr, ptr %5, align 8
  %23 = getelementptr inbounds nuw %struct.SDL_IOStream, ptr %22, i32 0, i32 0
  %24 = getelementptr inbounds nuw %struct.SDL_IOStreamInterface, ptr %23, i32 0, i32 2
  %25 = load ptr, ptr %24, align 8
  %26 = load ptr, ptr %5, align 8
  %27 = getelementptr inbounds nuw %struct.SDL_IOStream, ptr %26, i32 0, i32 1
  %28 = load ptr, ptr %27, align 8
  %29 = load i64, ptr %6, align 8
  %30 = load i32, ptr %7, align 4
  %31 = call i64 %25(ptr noundef %28, i64 noundef %29, i32 noundef %30)
  store i64 %31, ptr %4, align 8
  br label %32

32:                                               ; preds = %21, %18, %10
  %33 = load i64, ptr %4, align 8
  ret i64 %33
}

; Function Attrs: nounwind uwtable
define hidden i64 @SDL_GetIOSize_REAL(ptr noundef %0) #0 {
  %2 = alloca i64, align 8
  %3 = alloca ptr, align 8
  %4 = alloca i64, align 8
  %5 = alloca i64, align 8
  %6 = alloca i32, align 4
  store ptr %0, ptr %3, align 8
  %7 = load ptr, ptr %3, align 8
  %8 = icmp ne ptr %7, null
  br i1 %8, label %12, label %9

9:                                                ; preds = %1
  %10 = call zeroext i1 (ptr, ...) @SDL_SetError_REAL(ptr noundef @.str.2, ptr noundef @.str.11)
  %11 = zext i1 %10 to i64
  store i64 %11, ptr %2, align 8
  br label %41

12:                                               ; preds = %1
  %13 = load ptr, ptr %3, align 8
  %14 = getelementptr inbounds nuw %struct.SDL_IOStream, ptr %13, i32 0, i32 0
  %15 = getelementptr inbounds nuw %struct.SDL_IOStreamInterface, ptr %14, i32 0, i32 1
  %16 = load ptr, ptr %15, align 8
  %17 = icmp ne ptr %16, null
  br i1 %17, label %32, label %18

18:                                               ; preds = %12
  call void @llvm.lifetime.start.p0(i64 8, ptr %4) #11
  call void @llvm.lifetime.start.p0(i64 8, ptr %5) #11
  %19 = load ptr, ptr %3, align 8
  %20 = call i64 @SDL_SeekIO_REAL(ptr noundef %19, i64 noundef 0, i32 noundef 1)
  store i64 %20, ptr %4, align 8
  %21 = load i64, ptr %4, align 8
  %22 = icmp slt i64 %21, 0
  br i1 %22, label %23, label %24

23:                                               ; preds = %18
  store i64 -1, ptr %2, align 8
  store i32 1, ptr %6, align 4
  br label %31

24:                                               ; preds = %18
  %25 = load ptr, ptr %3, align 8
  %26 = call i64 @SDL_SeekIO_REAL(ptr noundef %25, i64 noundef 0, i32 noundef 2)
  store i64 %26, ptr %5, align 8
  %27 = load ptr, ptr %3, align 8
  %28 = load i64, ptr %4, align 8
  %29 = call i64 @SDL_SeekIO_REAL(ptr noundef %27, i64 noundef %28, i32 noundef 0)
  %30 = load i64, ptr %5, align 8
  store i64 %30, ptr %2, align 8
  store i32 1, ptr %6, align 4
  br label %31

31:                                               ; preds = %24, %23
  call void @llvm.lifetime.end.p0(i64 8, ptr %5) #11
  call void @llvm.lifetime.end.p0(i64 8, ptr %4) #11
  br label %41

32:                                               ; preds = %12
  %33 = load ptr, ptr %3, align 8
  %34 = getelementptr inbounds nuw %struct.SDL_IOStream, ptr %33, i32 0, i32 0
  %35 = getelementptr inbounds nuw %struct.SDL_IOStreamInterface, ptr %34, i32 0, i32 1
  %36 = load ptr, ptr %35, align 8
  %37 = load ptr, ptr %3, align 8
  %38 = getelementptr inbounds nuw %struct.SDL_IOStream, ptr %37, i32 0, i32 1
  %39 = load ptr, ptr %38, align 8
  %40 = call i64 %36(ptr noundef %39)
  store i64 %40, ptr %2, align 8
  br label %41

41:                                               ; preds = %32, %31, %9
  %42 = load i64, ptr %2, align 8
  ret i64 %42
}