; Function Attrs: nounwind uwtable
define hidden i64 @SDL_GetIOSize_REAL(ptr noundef readonly captures(address_is_null) %0) local_unnamed_addr #0 {
  %.not = icmp eq ptr %0, null
  br i1 %.not, label %2, label %5

2:                                                ; preds = %1
  %3 = tail call zeroext i1 (ptr, ...) @SDL_SetError_REAL(ptr noundef nonnull @.str.2, ptr noundef nonnull @.str.11) #18
  %4 = zext i1 %3 to i64
  br label %SDL_SeekIO_REAL.exit21

5:                                                ; preds = %1
  %6 = getelementptr inbounds nuw i8, ptr %0, i64 8
  %7 = load ptr, ptr %6, align 8
  %.not13 = icmp eq ptr %7, null
  br i1 %.not13, label %8, label %29

8:                                                ; preds = %5
  %9 = getelementptr inbounds nuw i8, ptr %0, i64 16
  %10 = load ptr, ptr %9, align 8
  %.not8.i = icmp eq ptr %10, null
  br i1 %.not8.i, label %SDL_SeekIO_REAL.exit.thread, label %SDL_SeekIO_REAL.exit

SDL_SeekIO_REAL.exit.thread:                      ; preds = %8
  %11 = tail call zeroext i1 (ptr, ...) @SDL_SetError_REAL(ptr noundef nonnull @.str.18) #18
  br label %SDL_SeekIO_REAL.exit21

SDL_SeekIO_REAL.exit:                             ; preds = %8
  %12 = getelementptr inbounds nuw i8, ptr %0, i64 56
  %13 = load ptr, ptr %12, align 8
  %14 = tail call i64 %10(ptr noundef %13, i64 noundef 0, i32 noundef 1) #18
  %15 = icmp slt i64 %14, 0
  br i1 %15, label %SDL_SeekIO_REAL.exit21, label %16

16:                                               ; preds = %SDL_SeekIO_REAL.exit
  %17 = load ptr, ptr %9, align 8
  %.not8.i15 = icmp eq ptr %17, null
  br i1 %.not8.i15, label %18, label %20

18:                                               ; preds = %16
  %19 = tail call zeroext i1 (ptr, ...) @SDL_SetError_REAL(ptr noundef nonnull @.str.18) #18
  br label %SDL_SeekIO_REAL.exit17

20:                                               ; preds = %16
  %21 = load ptr, ptr %12, align 8
  %22 = tail call i64 %17(ptr noundef %21, i64 noundef 0, i32 noundef 2) #18
  br label %SDL_SeekIO_REAL.exit17

SDL_SeekIO_REAL.exit17:                           ; preds = %20, %18
  %.0.i16 = phi i64 [ %22, %20 ], [ -1, %18 ]
  %23 = load ptr, ptr %9, align 8
  %.not8.i19 = icmp eq ptr %23, null
  br i1 %.not8.i19, label %24, label %26

24:                                               ; preds = %SDL_SeekIO_REAL.exit17
  %25 = tail call zeroext i1 (ptr, ...) @SDL_SetError_REAL(ptr noundef nonnull @.str.18) #18
  br label %SDL_SeekIO_REAL.exit21

26:                                               ; preds = %SDL_SeekIO_REAL.exit17
  %27 = load ptr, ptr %12, align 8
  %28 = tail call i64 %23(ptr noundef %27, i64 noundef %14, i32 noundef 0) #18
  br label %SDL_SeekIO_REAL.exit21

29:                                               ; preds = %5
  %30 = getelementptr inbounds nuw i8, ptr %0, i64 56
  %31 = load ptr, ptr %30, align 8
  %32 = tail call i64 %7(ptr noundef %31) #18
  br label %SDL_SeekIO_REAL.exit21

SDL_SeekIO_REAL.exit21:                           ; preds = %26, %24, %SDL_SeekIO_REAL.exit.thread, %SDL_SeekIO_REAL.exit, %29, %2
  %.0 = phi i64 [ %32, %29 ], [ %4, %2 ], [ -1, %SDL_SeekIO_REAL.exit ], [ -1, %SDL_SeekIO_REAL.exit.thread ], [ %.0.i16, %24 ], [ %.0.i16, %26 ]
  ret i64 %.0
}